target datalayout = "e-m:e-p270:32:32-p271:32:32-p272:64:64-i64:64-i128:128-f80:128-n8:16:32:64-S128"
target triple = "x86_64-pc-linux-gnu"

%struct.Gia_Man_t_ = type { ptr, ptr, i32, i32, i32, i32, ptr, ptr, i32, i32, i32, ptr, ptr, %struct.Vec_Int_t_, %struct.Vec_Int_t_, i32, i32, i32, %struct.Vec_Int_t_, ptr, ptr, ptr, i32, i32, i32, i32, ptr, ptr, ptr, ptr, ptr, i32, i32, ptr, i32, ptr, ptr, ptr, ptr, ptr, ptr, ptr, ptr, ptr, ptr, ptr, ptr, ptr, ptr, ptr, ptr, ptr, ptr, %struct.Vec_Int_t_, %struct.Vec_Int_t_, ptr, ptr, ptr, ptr, ptr, ptr, ptr, ptr, ptr, ptr, ptr, ptr, ptr, ptr, ptr, ptr, ptr, ptr, ptr, ptr, ptr, i32, float, float, ptr, ptr, i32, ptr, ptr, ptr, ptr, ptr, ptr, ptr, ptr, ptr, ptr, ptr, ptr, ptr, ptr, ptr, i64, i64, ptr, ptr, i32, i32, i32, i32, i32, i32, i32, i32, i32, i32, i32, i32, ptr, ptr, ptr, ptr, ptr, ptr, ptr, ptr, i32, i32, i32, ptr, i32, i32, ptr, ptr, ptr, ptr, ptr, ptr, i32, i32, ptr, %struct.Vec_Int_t_, %struct.Vec_Int_t_, %struct.Vec_Int_t_, ptr, ptr, ptr, i32, i32, i32, i32, ptr, ptr, ptr, ptr, ptr }
%struct.Vec_Int_t_ = type { i32, i32, ptr }
%struct.Gia_Obj_t_ = type <{ i64, i32 }>

@.str = private unnamed_addr constant [7 x i8] c"%5d : \00", align 1
@.str.1 = private unnamed_addr constant [12 x i8] c"%2d %2d    \00", align 1
@.str.2 = private unnamed_addr constant [11 x i8] c"%2d %2d  \0A\00", align 1

; Function Attrs: inlinehint nounwind uwtable
define internal i32 @Gia_ObjRefNumId(ptr noundef %0, i32 noundef %1) #4 {
  %3 = alloca ptr, align 8
  %4 = alloca i32, align 4
  store ptr %0, ptr %3, align 8, !tbaa !3
  store i32 %1, ptr %4, align 4, !tbaa !8
  %5 = load ptr, ptr %3, align 8, !tbaa !3
  %6 = getelementptr inbounds nuw %struct.Gia_Man_t_, ptr %5, i32 0, i32 19
  %7 = load ptr, ptr %6, align 8, !tbaa !10
  %8 = load i32, ptr %4, align 4, !tbaa !8
  %9 = sext i32 %8 to i64
  %10 = getelementptr inbounds i32, ptr %7, i64 %9
  %11 = load i32, ptr %10, align 4, !tbaa !8
  ret i32 %11
}

; Function Attrs: inlinehint nounwind uwtable
define internal i32 @Gia_ObjId(ptr noundef %0, ptr noundef %1) #4 {
  %3 = alloca ptr, align 8
  %4 = alloca ptr, align 8
  store ptr %0, ptr %3, align 8, !tbaa !3
  store ptr %1, ptr %4, align 8, !tbaa !31
  %5 = load ptr, ptr %4, align 8, !tbaa !31
  %6 = load ptr, ptr %3, align 8, !tbaa !3
  %7 = getelementptr inbounds nuw %struct.Gia_Man_t_, ptr %6, i32 0, i32 6
  %8 = load ptr, ptr %7, align 8, !tbaa !34
  %9 = ptrtoint ptr %5 to i64
  %10 = ptrtoint ptr %8 to i64
  %11 = sub i64 %9, %10
  %12 = sdiv exact i64 %11, 12
  %13 = trunc i64 %12 to i32
  ret i32 %13
}

; Function Attrs: inlinehint nounwind uwtable
define internal ptr @Gia_Regular(ptr noundef %0) #4 {
  %2 = alloca ptr, align 8
  store ptr %0, ptr %2, align 8, !tbaa !31
  %3 = load ptr, ptr %2, align 8, !tbaa !31
  %4 = ptrtoint ptr %3 to i64
  %5 = and i64 %4, -2
  %6 = inttoptr i64 %5 to ptr
  ret ptr %6
}

; Function Attrs: inlinehint nounwind uwtable
define internal ptr @Gia_ObjFanin1(ptr noundef %0) #4 {
  %2 = alloca ptr, align 8
  store ptr %0, ptr %2, align 8, !tbaa !31
  %3 = load ptr, ptr %2, align 8, !tbaa !31
  %4 = load ptr, ptr %2, align 8, !tbaa !31
  %5 = load i64, ptr %4, align 4
  %6 = lshr i64 %5, 32
  %7 = and i64 %6, 536870911
  %8 = trunc i64 %7 to i32
  %9 = sext i32 %8 to i64
  %10 = sub i64 0, %9
  %11 = getelementptr inbounds %struct.Gia_Obj_t_, ptr %3, i64 %10
  ret ptr %11
}

; Function Attrs: inlinehint nounwind uwtable
define internal i32 @Gia_ObjRefNum(ptr noundef %0, ptr noundef %1) #4 {
  %3 = alloca ptr, align 8
  %4 = alloca ptr, align 8
  store ptr %0, ptr %3, align 8, !tbaa !3
  store ptr %1, ptr %4, align 8, !tbaa !31
  %5 = load ptr, ptr %3, align 8, !tbaa !3
  %6 = load ptr, ptr %3, align 8, !tbaa !3
  %7 = load ptr, ptr %4, align 8, !tbaa !31
  %8 = call i32 @Gia_ObjId(ptr noundef %6, ptr noundef %7)
  %9 = call i32 @Gia_ObjRefNumId(ptr noundef %5, i32 noundef %8)
  ret i32 %9
}

; Function Attrs: inlinehint nounwind uwtable
define internal ptr @Gia_ObjFanin0(ptr noundef %0) #4 {
  %2 = alloca ptr, align 8
  store ptr %0, ptr %2, align 8, !tbaa !31
  %3 = load ptr, ptr %2, align 8, !tbaa !31
  %4 = load ptr, ptr %2, align 8, !tbaa !31
  %5 = load i64, ptr %4, align 4
  %6 = and i64 %5, 536870911
  %7 = trunc i64 %6 to i32
  %8 = sext i32 %7 to i64
  %9 = sub i64 0, %8
  %10 = getelementptr inbounds %struct.Gia_Obj_t_, ptr %3, i64 %9
  ret ptr %10
}

; Function Attrs: inlinehint nounwind uwtable
define internal i32 @Gia_ObjIsAnd(ptr noundef %0) #4 {
  %2 = alloca ptr, align 8
  store ptr %0, ptr %2, align 8, !tbaa !31
  %3 = load ptr, ptr %2, align 8, !tbaa !31
  %4 = load i64, ptr %3, align 4
  %5 = lshr i64 %4, 31
  %6 = and i64 %5, 1
  %7 = trunc i64 %6 to i32
  %8 = icmp ne i32 %7, 0
  br i1 %8, label %15, label %9

9:                                                ; preds = %1
  %10 = load ptr, ptr %2, align 8, !tbaa !31
  %11 = load i64, ptr %10, align 4
  %12 = and i64 %11, 536870911
  %13 = trunc i64 %12 to i32
  %14 = icmp ne i32 %13, 536870911
  br label %15

15:                                               ; preds = %9, %1
  %16 = phi i1 [ false, %1 ], [ %14, %9 ]
  %17 = zext i1 %16 to i32
  ret i32 %17
}

; Function Attrs: inlinehint nounwind uwtable
define internal ptr @Gia_ManObj(ptr noundef %0, i32 noundef %1) #4 {
  %3 = alloca ptr, align 8
  %4 = alloca i32, align 4
  store ptr %0, ptr %3, align 8, !tbaa !3
  store i32 %1, ptr %4, align 4, !tbaa !8
  %5 = load ptr, ptr %3, align 8, !tbaa !3
  %6 = getelementptr inbounds nuw %struct.Gia_Man_t_, ptr %5, i32 0, i32 6
  %7 = load ptr, ptr %6, align 8, !tbaa !34
  %8 = load i32, ptr %4, align 4, !tbaa !8
  %9 = sext i32 %8 to i64
  %10 = getelementptr inbounds %struct.Gia_Obj_t_, ptr %7, i64 %9
  ret ptr %10
}

; Function Attrs: nounwind uwtable
define void @Cec_GiaSplitExplore(ptr noundef %0) #0 {
  %2 = alloca ptr, align 8
  %3 = alloca ptr, align 8
  %4 = alloca ptr, align 8
  %5 = alloca ptr, align 8
  %6 = alloca i32, align 4
  %7 = alloca i32, align 4
  store ptr %0, ptr %2, align 8, !tbaa !3
  call void @llvm.lifetime.start.p0(i64 8, ptr %3) #12
  call void @llvm.lifetime.start.p0(i64 8, ptr %4) #12
  call void @llvm.lifetime.start.p0(i64 8, ptr %5) #12
  call void @llvm.lifetime.start.p0(i64 4, ptr %6) #12
  call void @llvm.lifetime.start.p0(i64 4, ptr %7) #12
  store i32 0, ptr %7, align 4, !tbaa !8
  %8 = load ptr, ptr %2, align 8, !tbaa !3
  %9 = getelementptr inbounds nuw %struct.Gia_Man_t_, ptr %8, i32 0, i32 19
  %10 = load ptr, ptr %9, align 8, !tbaa !10
  %11 = icmp ne ptr %10, null
  br i1 %11, label %12, label %18

12:                                               ; preds = %1
  %13 = load ptr, ptr %2, align 8, !tbaa !3
  %14 = getelementptr inbounds nuw %struct.Gia_Man_t_, ptr %13, i32 0, i32 19
  %15 = load ptr, ptr %14, align 8, !tbaa !10
  call void @free(ptr noundef %15) #12
  %16 = load ptr, ptr %2, align 8, !tbaa !3
  %17 = getelementptr inbounds nuw %struct.Gia_Man_t_, ptr %16, i32 0, i32 19
  store ptr null, ptr %17, align 8, !tbaa !10
  br label %19

18:                                               ; preds = %1
  br label %19

19:                                               ; preds = %18, %12
  %20 = load ptr, ptr %2, align 8, !tbaa !3
  call void @Gia_ManCreateRefs(ptr noundef %20)
  store i32 0, ptr %6, align 4, !tbaa !8
  br label %21

21:                                               ; preds = %80, %19
  %22 = load i32, ptr %6, align 4, !tbaa !8
  %23 = load ptr, ptr %2, align 8, !tbaa !3
  %24 = getelementptr inbounds nuw %struct.Gia_Man_t_, ptr %23, i32 0, i32 4
  %25 = load i32, ptr %24, align 8, !tbaa !30
  %26 = icmp slt i32 %22, %25
  br i1 %26, label %27, label %32

27:                                               ; preds = %21
  %28 = load ptr, ptr %2, align 8, !tbaa !3
  %29 = load i32, ptr %6, align 4, !tbaa !8
  %30 = call ptr @Gia_ManObj(ptr noundef %28, i32 noundef %29)
  store ptr %30, ptr %3, align 8, !tbaa !31
  %31 = icmp ne ptr %30, null
  br label %32

32:                                               ; preds = %27, %21
  %33 = phi i1 [ false, %21 ], [ %31, %27 ]
  br i1 %33, label %34, label %83

34:                                               ; preds = %32
  %35 = load ptr, ptr %3, align 8, !tbaa !31
  %36 = call i32 @Gia_ObjIsAnd(ptr noundef %35)
  %37 = icmp ne i32 %36, 0
  br i1 %37, label %39, label %38

38:                                               ; preds = %34
  br label %79

39:                                               ; preds = %34
  %40 = load ptr, ptr %3, align 8, !tbaa !31
  %41 = call i32 @Gia_ObjRecognizeExor(ptr noundef %40, ptr noundef %4, ptr noundef %5)
  %42 = icmp ne i32 %41, 0
  br i1 %42, label %44, label %43

43:                                               ; preds = %39
  br label %80

44:                                               ; preds = %39
  %45 = load ptr, ptr %2, align 8, !tbaa !3
  %46 = load ptr, ptr %3, align 8, !tbaa !31
  %47 = call ptr @Gia_ObjFanin0(ptr noundef %46)
  %48 = call i32 @Gia_ObjRefNum(ptr noundef %45, ptr noundef %47)
  %49 = icmp sgt i32 %48, 1
  br i1 %49, label %50, label %57

50:                                               ; preds = %44
  %51 = load ptr, ptr %2, align 8, !tbaa !3
  %52 = load ptr, ptr %3, align 8, !tbaa !31
  %53 = call ptr @Gia_ObjFanin1(ptr noundef %52)
  %54 = call i32 @Gia_ObjRefNum(ptr noundef %51, ptr noundef %53)
  %55 = icmp sgt i32 %54, 1
  br i1 %55, label %56, label %57

56:                                               ; preds = %50
  br label %80

57:                                               ; preds = %50, %44
  %58 = load i32, ptr %7, align 4, !tbaa !8
  %59 = add nsw i32 %58, 1
  store i32 %59, ptr %7, align 4, !tbaa !8
  %60 = call i32 (ptr, ...) @printf(ptr noundef @.str, i32 noundef %58)
  %61 = load ptr, ptr %2, align 8, !tbaa !3
  %62 = load ptr, ptr %4, align 8, !tbaa !31
  %63 = call ptr @Gia_Regular(ptr noundef %62)
  %64 = call i32 @Gia_ObjRefNum(ptr noundef %61, ptr noundef %63)
  %65 = load ptr, ptr %2, align 8, !tbaa !3
  %66 = load ptr, ptr %5, align 8, !tbaa !31
  %67 = call ptr @Gia_Regular(ptr noundef %66)
  %68 = call i32 @Gia_ObjRefNum(ptr noundef %65, ptr noundef %67)
  %69 = call i32 (ptr, ...) @printf(ptr noundef @.str.1, i32 noundef %64, i32 noundef %68)
  %70 = load ptr, ptr %2, align 8, !tbaa !3
  %71 = load ptr, ptr %3, align 8, !tbaa !31
  %72 = call ptr @Gia_ObjFanin0(ptr noundef %71)
  %73 = call i32 @Gia_ObjRefNum(ptr noundef %70, ptr noundef %72)
  %74 = load ptr, ptr %2, align 8, !tbaa !3
  %75 = load ptr, ptr %3, align 8, !tbaa !31
  %76 = call ptr @Gia_ObjFanin1(ptr noundef %75)
  %77 = call i32 @Gia_ObjRefNum(ptr noundef %74, ptr noundef %76)
  %78 = call i32 (ptr, ...) @printf(ptr noundef @.str.2, i32 noundef %73, i32 noundef %77)
  br label %79

79:                                               ; preds = %57, %38
  br label %80

80:                                               ; preds = %79, %56, %43
  %81 = load i32, ptr %6, align 4, !tbaa !8
  %82 = add nsw i32 %81, 1
  store i32 %82, ptr %6, align 4, !tbaa !8
  br label %21, !llvm.loop !32

83:                                               ; preds = %32
  call void @llvm.lifetime.end.p0(i64 4, ptr %7) #12
  call void @llvm.lifetime.end.p0(i64 4, ptr %6) #12
  call void @llvm.lifetime.end.p0(i64 8, ptr %5) #12
  call void @llvm.lifetime.end.p0(i64 8, ptr %4) #12
  call void @llvm.lifetime.end.p0(i64 8, ptr %3) #12
  ret void
}