; Function Attrs: nounwind uwtable
define void @Cec_GiaSplitExplore(ptr noundef %0) local_unnamed_addr #0 {
  %2 = alloca ptr, align 8
  %3 = alloca ptr, align 8
  call void @llvm.lifetime.start.p0(i64 8, ptr nonnull %2) #18
  call void @llvm.lifetime.start.p0(i64 8, ptr nonnull %3) #18
  %4 = getelementptr inbounds nuw i8, ptr %0, i64 144
  %5 = load ptr, ptr %4, align 8, !tbaa !3
  %.not = icmp eq ptr %5, null
  br i1 %.not, label %7, label %6

6:                                                ; preds = %1
  tail call void @free(ptr noundef nonnull %5) #18
  store ptr null, ptr %4, align 8, !tbaa !3
  br label %7

7:                                                ; preds = %1, %6
  tail call void @Gia_ManCreateRefs(ptr noundef nonnull %0) #18
  %8 = getelementptr i8, ptr %0, i64 32
  %9 = getelementptr inbounds nuw i8, ptr %0, i64 24
  %10 = load i32, ptr %9, align 8, !tbaa !28
  %11 = icmp sgt i32 %10, 0
  br i1 %11, label %.lr.ph, label %.critedge

.lr.ph:                                           ; preds = %7, %87
  %indvars.iv = phi i64 [ %indvars.iv.next, %87 ], [ 0, %7 ]
  %.047 = phi i32 [ %.1, %87 ], [ 0, %7 ]
  %.val = load ptr, ptr %8, align 8, !tbaa !29
  %12 = getelementptr inbounds nuw %struct.Gia_Obj_t_, ptr %.val, i64 %indvars.iv
  %.not24 = icmp eq ptr %.val, null
  br i1 %.not24, label %.critedge, label %13

13:                                               ; preds = %.lr.ph
  %.val27 = load i64, ptr %12, align 4
  %14 = and i64 %.val27, 2147483648
  %.not.i = icmp ne i64 %14, 0
  %15 = and i64 %.val27, 536870911
  %16 = icmp eq i64 %15, 536870911
  %narrow.i.not = or i1 %.not.i, %16
  br i1 %narrow.i.not, label %87, label %17

17:                                               ; preds = %13
  %18 = call i32 @Gia_ObjRecognizeExor(ptr noundef nonnull %12, ptr noundef nonnull %2, ptr noundef nonnull %3) #18
  %.not26 = icmp eq i32 %18, 0
  br i1 %.not26, label %87, label %19

19:                                               ; preds = %17
  %20 = load i64, ptr %12, align 4
  %21 = and i64 %20, 536870911
  %22 = sub nsw i64 0, %21
  %23 = getelementptr inbounds %struct.Gia_Obj_t_, ptr %12, i64 %22
  %.val28 = load ptr, ptr %8, align 8, !tbaa !29
  %.val29 = load ptr, ptr %4, align 8, !tbaa !3
  %24 = ptrtoint ptr %23 to i64
  %25 = ptrtoint ptr %.val28 to i64
  %26 = sub i64 %24, %25
  %27 = sdiv exact i64 %26, 12
  %sext.i = shl i64 %27, 32
  %28 = ashr exact i64 %sext.i, 30
  %29 = getelementptr inbounds i8, ptr %.val29, i64 %28
  %30 = load i32, ptr %29, align 4, !tbaa !30
  %31 = icmp sgt i32 %30, 1
  br i1 %31, label %32, label %44

32:                                               ; preds = %19
  %33 = lshr i64 %20, 32
  %34 = and i64 %33, 536870911
  %35 = sub nsw i64 0, %34
  %36 = getelementptr inbounds %struct.Gia_Obj_t_, ptr %12, i64 %35
  %37 = ptrtoint ptr %36 to i64
  %38 = sub i64 %37, %25
  %39 = sdiv exact i64 %38, 12
  %sext.i40 = shl i64 %39, 32
  %40 = ashr exact i64 %sext.i40, 30
  %41 = getelementptr inbounds i8, ptr %.val29, i64 %40
  %42 = load i32, ptr %41, align 4, !tbaa !30
  %43 = icmp sgt i32 %42, 1
  br i1 %43, label %87, label %44

44:                                               ; preds = %32, %19
  %45 = add nsw i32 %.047, 1
  %46 = call i32 (ptr, ...) @printf(ptr noundef nonnull dereferenceable(1) @.str, i32 noundef %.047)
  %47 = load ptr, ptr %2, align 8, !tbaa !31
  %48 = ptrtoint ptr %47 to i64
  %49 = and i64 %48, -2
  %.val32 = load ptr, ptr %8, align 8, !tbaa !29
  %.val33 = load ptr, ptr %4, align 8, !tbaa !3
  %50 = ptrtoint ptr %.val32 to i64
  %51 = sub i64 %49, %50
  %52 = sdiv exact i64 %51, 12
  %sext.i41 = shl i64 %52, 32
  %53 = ashr exact i64 %sext.i41, 30
  %54 = getelementptr inbounds i8, ptr %.val33, i64 %53
  %55 = load i32, ptr %54, align 4, !tbaa !30
  %56 = load ptr, ptr %3, align 8, !tbaa !31
  %57 = ptrtoint ptr %56 to i64
  %58 = and i64 %57, -2
  %59 = sub i64 %58, %50
  %60 = sdiv exact i64 %59, 12
  %sext.i42 = shl i64 %60, 32
  %61 = ashr exact i64 %sext.i42, 30
  %62 = getelementptr inbounds i8, ptr %.val33, i64 %61
  %63 = load i32, ptr %62, align 4, !tbaa !30
  %64 = call i32 (ptr, ...) @printf(ptr noundef nonnull dereferenceable(1) @.str.1, i32 noundef %55, i32 noundef %63)
  %65 = load i64, ptr %12, align 4
  %66 = and i64 %65, 536870911
  %67 = sub nsw i64 0, %66
  %68 = getelementptr inbounds %struct.Gia_Obj_t_, ptr %12, i64 %67
  %.val36 = load ptr, ptr %8, align 8, !tbaa !29
  %.val37 = load ptr, ptr %4, align 8, !tbaa !3
  %69 = ptrtoint ptr %68 to i64
  %70 = ptrtoint ptr %.val36 to i64
  %71 = sub i64 %69, %70
  %72 = sdiv exact i64 %71, 12
  %sext.i43 = shl i64 %72, 32
  %73 = ashr exact i64 %sext.i43, 30
  %74 = getelementptr inbounds i8, ptr %.val37, i64 %73
  %75 = load i32, ptr %74, align 4, !tbaa !30
  %76 = lshr i64 %65, 32
  %77 = and i64 %76, 536870911
  %78 = sub nsw i64 0, %77
  %79 = getelementptr inbounds %struct.Gia_Obj_t_, ptr %12, i64 %78
  %80 = ptrtoint ptr %79 to i64
  %81 = sub i64 %80, %70
  %82 = sdiv exact i64 %81, 12
  %sext.i44 = shl i64 %82, 32
  %83 = ashr exact i64 %sext.i44, 30
  %84 = getelementptr inbounds i8, ptr %.val37, i64 %83
  %85 = load i32, ptr %84, align 4, !tbaa !30
  %86 = call i32 (ptr, ...) @printf(ptr noundef nonnull dereferenceable(1) @.str.2, i32 noundef %75, i32 noundef %85)
  br label %87

87:                                               ; preds = %44, %13, %32, %17
  %.1 = phi i32 [ %.047, %32 ], [ %45, %44 ], [ %.047, %17 ], [ %.047, %13 ]
  %indvars.iv.next = add nuw nsw i64 %indvars.iv, 1
  %88 = load i32, ptr %9, align 8, !tbaa !28
  %89 = sext i32 %88 to i64
  %90 = icmp slt i64 %indvars.iv.next, %89
  br i1 %90, label %.lr.ph, label %.critedge, !llvm.loop !32

.critedge:                                        ; preds = %.lr.ph, %87, %7
  call void @llvm.lifetime.end.p0(i64 8, ptr nonnull %3) #18
  call void @llvm.lifetime.end.p0(i64 8, ptr nonnull %2) #18
  ret void
}